BL51 BANKED LINKER/LOCATER V6.22                                                        05/27/2020  13:29:17  PAGE 1


BL51 BANKED LINKER/LOCATER V6.22, INVOKED BY:
G:\2.DEVELOP\KEIL\C51\BIN\BL51.EXE .\list\main.obj, .\list\delay.obj, .\list\uart.obj TO .\list\IO-LED PRINT (.\list\IO-
>> LED.m51) RAMSIZE (256) DISABLEWARNING (16)


MEMORY MODEL: SMALL


INPUT MODULES INCLUDED:
  .\list\main.obj (MAIN)
  .\list\delay.obj (DELAY)
  .\list\uart.obj (UART)
  G:\2.DEVELOP\KEIL\C51\LIB\C51S.LIB (?C_STARTUP)
  G:\2.DEVELOP\KEIL\C51\LIB\C51S.LIB (?C?CLDPTR)
  G:\2.DEVELOP\KEIL\C51\LIB\C51S.LIB (PRINTF)
  G:\2.DEVELOP\KEIL\C51\LIB\C51S.LIB (?C_INIT)
  G:\2.DEVELOP\KEIL\C51\LIB\C51S.LIB (?C?CLDOPTR)
  G:\2.DEVELOP\KEIL\C51\LIB\C51S.LIB (?C?CSTPTR)
  G:\2.DEVELOP\KEIL\C51\LIB\C51S.LIB (?C?PLDIIDATA)
  G:\2.DEVELOP\KEIL\C51\LIB\C51S.LIB (?C?CCASE)


LINK MAP OF MODULE:  .\list\IO-LED (MAIN)


            TYPE    BASE      LENGTH    RELOCATION   SEGMENT NAME
            -----------------------------------------------------

            * * * * * * *   D A T A   M E M O R Y   * * * * * * *
            REG     0000H     0008H     ABSOLUTE     "REG BANK 0"
            DATA    0008H     0015H     UNIT         _DATA_GROUP_
            DATA    001DH     0003H     UNIT         ?DT?_UARTPRINTF?UART
            BIT     0020H.0   0001H.1   UNIT         _BIT_GROUP_
            BIT     0021H.1   0000H.1   UNIT         ?BI?UART
                    0021H.2   0000H.6                *** GAP ***
            DATA    0022H     0013H     UNIT         ?DT?UART
            IDATA   0035H     0001H     UNIT         ?STACK

            * * * * * * *   C O D E   M E M O R Y   * * * * * * *
            CODE    0000H     0003H     ABSOLUTE     
            CODE    0003H     001CH     UNIT         ?PR?_IAPREAD?MAIN
            CODE    001FH     0004H     UNIT         ?C_INITSEG
            CODE    0023H     0003H     ABSOLUTE     
            CODE    0026H     035CH     UNIT         ?PR?PRINTF?PRINTF
            CODE    0382H     008EH     UNIT         ?C?LIB_CODE
            CODE    0410H     008CH     UNIT         ?C_C51STARTUP
            CODE    049CH     005EH     UNIT         ?PR?MAIN?MAIN
            CODE    04FAH     002DH     UNIT         ?PR?UARTISR?UART
            CODE    0527H     0025H     UNIT         ?PR?_UARTPRINTF?UART
            CODE    054CH     001BH     UNIT         ?PR?_IAPPROGRAM?MAIN
            CODE    0567H     0019H     UNIT         ?PR?_IAPERASE?MAIN
            CODE    0580H     0019H     UNIT         ?CO?MAIN
            CODE    0599H     0018H     UNIT         ?PR?UART_INIT?UART
            CODE    05B1H     0010H     UNIT         ?PR?_DELAY_MS?DELAY
            CODE    05C1H     000DH     UNIT         ?PR?IAPIDLE?MAIN
            CODE    05CEH     000AH     UNIT         ?PR?GPIO_CONFIG?MAIN
            CODE    05D8H     0008H     UNIT         ?PR?_UARTPRINTASCII?UART
            CODE    05E0H     0006H     UNIT         ?PR?_PUTCHAR?UART
BL51 BANKED LINKER/LOCATER V6.22                                                      05/27/2020  13:29:17  PAGE 2





OVERLAY MAP OF MODULE:   .\list\IO-LED (MAIN)


SEGMENT                             BIT_GROUP          DATA_GROUP 
  +--> CALLED SEGMENT            START    LENGTH     START    LENGTH
--------------------------------------------------------------------
?C_C51STARTUP                    -----    -----      -----    -----
  +--> ?PR?MAIN?MAIN
  +--> ?C_INITSEG

?PR?MAIN?MAIN                    -----    -----      0008H    0001H
  +--> ?PR?GPIO_CONFIG?MAIN
  +--> ?PR?UART_INIT?UART
  +--> ?CO?MAIN
  +--> ?PR?PRINTF?PRINTF
  +--> ?PR?_IAPPROGRAM?MAIN
  +--> ?PR?_IAPREAD?MAIN
  +--> ?PR?_DELAY_MS?DELAY

?PR?PRINTF?PRINTF                0020H.0  0001H.1    0009H    0014H
  +--> ?PR?_PUTCHAR?UART

?PR?_PUTCHAR?UART                -----    -----      -----    -----
  +--> ?PR?_UARTPRINTASCII?UART

?PR?_IAPPROGRAM?MAIN             -----    -----      -----    -----
  +--> ?PR?IAPIDLE?MAIN

?PR?_IAPREAD?MAIN                -----    -----      -----    -----
  +--> ?PR?IAPIDLE?MAIN



SYMBOL TABLE OF MODULE:  .\list\IO-LED (MAIN)

  VALUE           TYPE          NAME
  ----------------------------------

  -------         MODULE        MAIN
  C:0000H         SYMBOL        _ICE_DUMMY_
  D:0092H         PUBLIC        P1M0
  D:0091H         PUBLIC        P1M1
  D:0080H         PUBLIC        P0
  D:00B2H         PUBLIC        P3M0
  D:0090H         PUBLIC        P1
  D:00B1H         PUBLIC        P3M1
  D:00A0H         PUBLIC        P2
  D:00B0H         PUBLIC        P3
  D:00C0H         PUBLIC        P4
  D:00C8H         PUBLIC        P5
  C:05CEH         PUBLIC        GPIO_config
  D:00A2H         PUBLIC        P_SW1
  D:00A8H         PUBLIC        IE
  C:0567H         PUBLIC        _IapErase
BL51 BANKED LINKER/LOCATER V6.22                                                      05/27/2020  13:29:17  PAGE 3


  D:00C5H         PUBLIC        IAP_CMD
  D:00B8H         PUBLIC        IP
  C:0003H         PUBLIC        _IapRead
  C:05C1H         PUBLIC        IapIdle
  D:00C3H         PUBLIC        IAP_ADDRH
  D:00D8H         PUBLIC        CCON
  D:00C4H         PUBLIC        IAP_ADDRL
  C:049CH         PUBLIC        main
  D:00F5H         PUBLIC        IAP_TPS
  D:0098H         PUBLIC        SCON
  D:0088H         PUBLIC        TCON
  B:0090H.6       PUBLIC        P16
  D:00C7H         PUBLIC        IAP_CONTR
  D:00C2H         PUBLIC        IAP_DATA
  D:00C6H         PUBLIC        IAP_TRIG
  C:054CH         PUBLIC        _IapProgram
  D:00D0H         PUBLIC        PSW
  -------         PROC          GPIO_CONFIG
  C:05CEH         LINE#         34
  C:05CEH         LINE#         35
  C:05CEH         LINE#         36
  C:05D1H         LINE#         37
  C:05D3H         LINE#         39
  C:05D5H         LINE#         40
  C:05D7H         LINE#         41
  -------         ENDPROC       GPIO_CONFIG
  -------         PROC          IAPIDLE
  C:05C1H         LINE#         44
  C:05C1H         LINE#         45
  C:05C1H         LINE#         46
  C:05C4H         LINE#         47
  C:05C6H         LINE#         48
  C:05C8H         LINE#         49
  C:05CBH         LINE#         50
  C:05CDH         LINE#         51
  -------         ENDPROC       IAPIDLE
  -------         PROC          _IAPREAD
  D:0006H         SYMBOL        addr
  -------         DO            
  D:0007H         SYMBOL        dat
  -------         ENDDO         
  C:0003H         LINE#         53
  C:0003H         LINE#         54
  C:0003H         LINE#         56
  C:0006H         LINE#         57
  C:0009H         LINE#         58
  C:000CH         LINE#         59
  C:000EH         LINE#         60
  C:0012H         LINE#         61
  C:0015H         LINE#         62
  C:0018H         LINE#         63
  C:0019H         LINE#         64
  C:001BH         LINE#         65
  C:001EH         LINE#         67
  C:001EH         LINE#         68
  -------         ENDPROC       _IAPREAD
  -------         PROC          _IAPPROGRAM
BL51 BANKED LINKER/LOCATER V6.22                                                      05/27/2020  13:29:17  PAGE 4


  D:0006H         SYMBOL        addr
  D:0005H         SYMBOL        dat
  C:054CH         LINE#         70
  C:054CH         LINE#         71
  C:054CH         LINE#         72
  C:054FH         LINE#         73
  C:0552H         LINE#         74
  C:0555H         LINE#         75
  C:0557H         LINE#         76
  C:055BH         LINE#         77
  C:055DH         LINE#         78
  C:0560H         LINE#         79
  C:0563H         LINE#         80
  C:0564H         LINE#         81
  -------         ENDPROC       _IAPPROGRAM
  -------         PROC          _IAPERASE
  D:0006H         SYMBOL        addr
  C:0567H         LINE#         83
  C:0567H         LINE#         84
  C:0567H         LINE#         85
  C:056AH         LINE#         86
  C:056DH         LINE#         87
  C:0570H         LINE#         88
  C:0572H         LINE#         89
  C:0576H         LINE#         90
  C:0579H         LINE#         91
  C:057CH         LINE#         92
  C:057DH         LINE#         93
  -------         ENDPROC       _IAPERASE
  -------         PROC          MAIN
  -------         DO            
  D:0008H         SYMBOL        test
  -------         ENDDO         
  C:049CH         LINE#         99
  C:049CH         LINE#         100
  C:049CH         LINE#         101
  C:049FH         LINE#         102
  C:04A1H         LINE#         104
  C:04A4H         LINE#         105
  C:04A7H         LINE#         109
  C:04A7H         LINE#         110
  C:04A7H         LINE#         111
  C:04B0H         LINE#         116
  C:04B9H         LINE#         117
  C:04C0H         LINE#         118
  C:04CCH         LINE#         120
  C:04CEH         LINE#         121
  C:04D3H         LINE#         122
  C:04D8H         LINE#         123
  C:04DDH         LINE#         124
  C:04E2H         LINE#         125
  C:04E4H         LINE#         126
  C:04E9H         LINE#         127
  C:04EEH         LINE#         128
  C:04F3H         LINE#         129
  C:04F8H         LINE#         130
  -------         ENDPROC       MAIN
BL51 BANKED LINKER/LOCATER V6.22                                                      05/27/2020  13:29:17  PAGE 5


  -------         ENDMOD        MAIN

  -------         MODULE        DELAY
  C:0000H         SYMBOL        _ICE_DUMMY_
  D:0080H         PUBLIC        P0
  D:0090H         PUBLIC        P1
  D:00A0H         PUBLIC        P2
  D:00B0H         PUBLIC        P3
  D:00C0H         PUBLIC        P4
  D:00C8H         PUBLIC        P5
  D:00A8H         PUBLIC        IE
  D:00B8H         PUBLIC        IP
  D:00D8H         PUBLIC        CCON
  D:0098H         PUBLIC        SCON
  D:0088H         PUBLIC        TCON
  C:05B1H         PUBLIC        _delay_ms
  D:00D0H         PUBLIC        PSW
  -------         PROC          _DELAY_MS
  D:0007H         SYMBOL        ms
  -------         DO            
  D:0004H         SYMBOL        i
  -------         ENDDO         
  C:05B1H         LINE#         34
  C:05B1H         LINE#         35
  C:05B1H         LINE#         37
  C:05B1H         LINE#         38
  C:05B5H         LINE#         39
  C:05BEH         LINE#         40
  C:05C0H         LINE#         41
  -------         ENDPROC       _DELAY_MS
  -------         ENDMOD        DELAY

  -------         MODULE        UART
  C:0000H         SYMBOL        _ICE_DUMMY_
  D:0080H         PUBLIC        P0
  D:0090H         PUBLIC        P1
  D:00A0H         PUBLIC        P2
  D:00B0H         PUBLIC        P3
  D:00C0H         PUBLIC        P4
  D:00C8H         PUBLIC        P5
  B:00A8H.7       PUBLIC        EA
  D:00A8H         PUBLIC        IE
  C:0599H         PUBLIC        Uart_Init
  C:0527H         PUBLIC        _UartPrintf
  D:0022H         PUBLIC        RX_Count
  B:00A8H.4       PUBLIC        ES
  D:00B8H         PUBLIC        IP
  C:05D8H         PUBLIC        _UartPrintASCII
  B:0098H.0       PUBLIC        RI
  B:0098H.1       PUBLIC        TI
  D:00D8H         PUBLIC        CCON
  D:0099H         PUBLIC        SBUF
  D:0098H         PUBLIC        SCON
  D:0088H         PUBLIC        TCON
  D:008EH         PUBLIC        AUXR
  B:0021H.1       PUBLIC        busy
  D:0023H         PUBLIC        rptr
BL51 BANKED LINKER/LOCATER V6.22                                                      05/27/2020  13:29:17  PAGE 6


  C:04FAH         PUBLIC        UartIsr
  D:00D6H         PUBLIC        T2H
  D:0024H         PUBLIC        wptr
  D:00D7H         PUBLIC        T2L
  D:00D0H         PUBLIC        PSW
  C:05E0H         PUBLIC        _putchar
  D:0025H         PUBLIC        buffer
  -------         PROC          UART_INIT
  C:0599H         LINE#         16
  C:0599H         LINE#         17
  C:0599H         LINE#         28
  C:059CH         LINE#         29
  C:059FH         LINE#         30
  C:05A2H         LINE#         32
  C:05A5H         LINE#         33
  C:05A8H         LINE#         34
  C:05AAH         LINE#         35
  C:05ACH         LINE#         37
  C:05AEH         LINE#         38
  C:05B0H         LINE#         40
  -------         ENDPROC       UART_INIT
  -------         PROC          _UARTPRINTF
  D:001DH         SYMBOL        p
  C:0527H         LINE#         42
  C:052DH         LINE#         43
  C:052DH         LINE#         44
  C:0538H         LINE#         45
  C:0538H         LINE#         46
  C:0549H         LINE#         47
  C:054BH         LINE#         48
  -------         ENDPROC       _UARTPRINTF
  -------         PROC          _UARTPRINTASCII
  D:0007H         SYMBOL        dat
  C:05D8H         LINE#         50
  C:05D8H         LINE#         51
  C:05D8H         LINE#         52
  C:05DBH         LINE#         53
  C:05DDH         LINE#         54
  C:05DFH         LINE#         55
  -------         ENDPROC       _UARTPRINTASCII
  -------         PROC          _PUTCHAR
  D:0006H         SYMBOL        c
  C:05E0H         LINE#         59
  C:05E2H         LINE#         60
  C:05E2H         LINE#         61
  C:05E5H         LINE#         62
  C:05E5H         LINE#         63
  -------         ENDPROC       _PUTCHAR
  -------         PROC          UARTISR
  C:04FAH         LINE#         77
  C:0505H         LINE#         79
  C:0508H         LINE#         80
  C:0508H         LINE#         81
  C:050AH         LINE#         82
  C:050CH         LINE#         83
  C:050CH         LINE#         84
  C:050FH         LINE#         85
BL51 BANKED LINKER/LOCATER V6.22                                                      05/27/2020  13:29:17  PAGE 7


  C:050FH         LINE#         86
  C:0511H         LINE#         87
  C:051BH         LINE#         88
  C:051EH         LINE#         89
  C:051EH         LINE#         90
  -------         ENDPROC       UARTISR
  -------         ENDMOD        UART

  -------         MODULE        ?C?CLDPTR
  C:0382H         PUBLIC        ?C?CLDPTR
  -------         ENDMOD        ?C?CLDPTR

  -------         MODULE        PRINTF
  D:0009H         PUBLIC        ?_PRINTF517?BYTE
  D:0009H         PUBLIC        ?_PRINTF?BYTE
  D:0009H         PUBLIC        ?_SPRINTF517?BYTE
  D:0009H         PUBLIC        ?_SPRINTF?BYTE
  C:0088H         PUBLIC        _PRINTF
  C:0088H         PUBLIC        _PRINTF517
  C:0082H         PUBLIC        _SPRINTF
  C:0082H         PUBLIC        _SPRINTF517
  -------         ENDMOD        PRINTF

  -------         MODULE        ?C?CLDOPTR
  C:039BH         PUBLIC        ?C?CLDOPTR
  -------         ENDMOD        ?C?CLDOPTR

  -------         MODULE        ?C?CSTPTR
  C:03C8H         PUBLIC        ?C?CSTPTR
  -------         ENDMOD        ?C?CSTPTR

  -------         MODULE        ?C?PLDIIDATA
  C:03DAH         PUBLIC        ?C?PLDIIDATA
  -------         ENDMOD        ?C?PLDIIDATA

  -------         MODULE        ?C?CCASE
  C:03EAH         PUBLIC        ?C?CCASE
  -------         ENDMOD        ?C?CCASE

Program Size: data=53.2 xdata=0 code=1510
LINK/LOCATE RUN COMPLETE.  0 WARNING(S),  0 ERROR(S)
